file name:elf32-tradlittlemips

bootloader.out:     file format elf32-tradlittlemips


Disassembly of section .text:

00280000 <_dsp_boot_start>:
  280000:	95 e0 00 21 	movigh gr30 2 <_boot_loader_sp_hi>
  280004:	95 e0 00 05 	movigl gr30 0 <_CORE0_DRAM_START>
  280008:	80 00 00 a1 	jmp 280020 <qx_bootloader_main>
  28000c:	80 00 00 00 	nop
  280010:	80 00 00 00 	nop

00280014 <_dsp_boot_jmp_to_core0>:
  280014:	80 01 00 03 	jmpr gr4
  280018:	80 00 00 00 	nop
  28001c:	80 00 00 00 	nop

00280020 <qx_bootloader_main>:
  280020:	99 e7 be 00 	addi gr30 gr30 ffffffc0 <DmaCh1Regs+0xfeff6ec0>
  280024:	ed f7 81 e2 	store32 gr31 gr30 f <_boot_loader_sp_hi+0xd>
  280028:	94 20 10 01 	movigh gr2 100 <_boot_loader_sp_hi+0xfe>
  28002c:	94 21 00 05 	movigl gr2 1000 <$line_table_start0+0xd0f>
  280030:	80 00 00 00 	nop
  280034:	14 40 00 01 ©°	movigh gr4 0 <_CORE0_DRAM_START>
  280038:	a8 30 87 00 ©¸	load8 gr3 gr2 38 <_boot_loader_sp_hi+0x36>
  28003c:	94 40 0f 85 	movigl gr4 f8 <_boot_loader_sp_hi+0xf6>
  280040:	84 30 c4 04 	and gr3 gr3 gr4
  280044:	94 50 02 21 	movigh gr5 22 <_boot_loader_sp_hi+0x20>
  280048:	94 50 00 05 	movigl gr5 0 <_CORE0_DRAM_START>
  28004c:	94 60 00 01 	movigh gr6 0 <_CORE0_DRAM_START>
  280050:	94 60 00 f5 	movigl gr6 f <_boot_loader_sp_hi+0xd>
  280054:	84 51 46 0b 	srl gr5 gr5 gr6
  280058:	94 70 00 01 	movigh gr7 0 <_CORE0_DRAM_START>
  28005c:	94 70 00 75 	movigl gr7 7 <_boot_loader_sp_hi+0x5>
  280060:	84 51 47 04 	and gr5 gr5 gr7
  280064:	84 30 c5 05 	or gr3 gr3 gr5
  280068:	ec 30 87 00 	store8 gr3 gr2 38 <_boot_loader_sp_hi+0x36>
  28006c:	a8 30 87 80 	load8 gr3 gr2 3c <_boot_loader_sp_hi+0x3a>
  280070:	84 30 c4 04 	and gr3 gr3 gr4
  280074:	94 40 02 01 	movigh gr4 20 <_boot_loader_sp_hi+0x1e>
  280078:	94 40 00 05 	movigl gr4 0 <_CORE0_DRAM_START>
  28007c:	84 41 06 0b 	srl gr4 gr4 gr6
  280080:	84 41 07 04 	and gr4 gr4 gr7
  280084:	84 30 c4 05 	or gr3 gr3 gr4
  280088:	ec 30 87 80 	store8 gr3 gr2 3c <_boot_loader_sp_hi+0x3a>
  28008c:	94 30 10 01 	movigh gr3 100 <_boot_loader_sp_hi+0xfe>
  280090:	94 31 20 05 	movigl gr3 1200 <$line_table_start0+0xf0f>
  280094:	80 00 00 00 	nop
  280098:	a8 40 c0 02 	load32 gr4 gr3 0 <_CORE0_DRAM_START>
  28009c:	94 40 00 03 	bst gr4 0 <_CORE0_DRAM_START>
  2800a0:	ec 40 c0 02 	store32 gr4 gr3 0 <_CORE0_DRAM_START>
  2800a4:	a8 30 80 02 	load32 gr3 gr2 0 <_CORE0_DRAM_START>
  2800a8:	94 30 04 03 	bst gr3 2 <_boot_loader_sp_hi>
  2800ac:	ec 30 80 02 	store32 gr3 gr2 0 <_CORE0_DRAM_START>
  2800b0:	94 20 10 01 	movigh gr2 100 <_boot_loader_sp_hi+0xfe>
  2800b4:	94 29 00 05 	movigl gr2 ffff9000 <DmaCh1Regs+0xfefeff00>
  2800b8:	94 30 00 01 	movigh gr3 0 <_CORE0_DRAM_START>
  2800bc:	94 30 00 35 	movigl gr3 3 <_boot_loader_sp_hi+0x1>
  2800c0:	ec 30 80 82 	store32 gr3 gr2 4 <_boot_loader_sp_hi+0x2>
  2800c4:	94 20 10 01 	movigh gr2 100 <_boot_loader_sp_hi+0xfe>
  2800c8:	94 29 10 05 	movigl gr2 ffff9100 <DmaCh1Regs+0xfeff0000>
  2800cc:	94 30 00 01 	movigh gr3 0 <_CORE0_DRAM_START>
  2800d0:	94 30 03 f5 	movigl gr3 3f <_boot_loader_sp_hi+0x3d>
  2800d4:	ec 30 80 82 	store32 gr3 gr2 4 <_boot_loader_sp_hi+0x2>
  2800d8:	84 30 c3 06 	xor gr3 gr3 gr3
  2800dc:	ec 30 81 22 	store32 gr3 gr2 9 <_boot_loader_sp_hi+0x7>
  2800e0:	80 00 00 00 	nop
  2800e4:	14 4f ff f1 ©°	movigh gr4 ffffffff <_DRAM_START_MASK_+0x7>
  2800e8:	a8 30 80 c2 ©¸	load32 gr3 gr2 6 <_boot_loader_sp_hi+0x4>
  2800ec:	94 4f 8f f5 	movigl gr4 fffff8ff <DmaCh1Regs+0xfeff67ff>
  2800f0:	84 30 c4 04 	and gr3 gr3 gr4
  2800f4:	94 30 12 03 	bst gr3 9 <_boot_loader_sp_hi+0x7>
  2800f8:	ec 30 80 c2 	store32 gr3 gr2 6 <_boot_loader_sp_hi+0x4>
  2800fc:	14 4f ff f1 ©°	movigh gr4 ffffffff <_DRAM_START_MASK_+0x7>
  280100:	a8 30 80 c2 ©¸	load32 gr3 gr2 6 <_boot_loader_sp_hi+0x4>
  280104:	94 4c 7f f5 	movigl gr4 ffffc7ff <DmaCh1Regs+0xfeff36ff>
  280108:	84 30 c4 04 	and gr3 gr3 gr4
  28010c:	94 30 18 03 	bst gr3 c <_boot_loader_sp_hi+0xa>
  280110:	ec 30 80 c2 	store32 gr3 gr2 6 <_boot_loader_sp_hi+0x4>
  280114:	94 30 00 01 	movigh gr3 0 <_CORE0_DRAM_START>
  280118:	94 30 00 25 	movigl gr3 2 <_boot_loader_sp_hi>
  28011c:	ec 30 84 82 	store32 gr3 gr2 24 <_boot_loader_sp_hi+0x22>
  280120:	94 23 00 01 	movigh gr2 3000 <$line_table_start0+0x2d0f>
  280124:	94 22 00 05 	movigl gr2 2000 <$line_table_start0+0x1d0f>
  280128:	ec 27 81 c2 	store32 gr2 gr30 e <_boot_loader_sp_hi+0xc>
  28012c:	a8 27 81 c2 	load32 gr2 gr30 e <_boot_loader_sp_hi+0xc>
  280130:	a8 20 80 02 	load32 gr2 gr2 0 <_CORE0_DRAM_START>
  280134:	ec 27 81 a2 	store32 gr2 gr30 d <_boot_loader_sp_hi+0xb>
  280138:	a8 27 81 c2 	load32 gr2 gr30 e <_boot_loader_sp_hi+0xc>
  28013c:	a8 20 80 22 	load32 gr2 gr2 1 <_CORE0_DRAM_START+0x1>
  280140:	ec 27 81 82 	store32 gr2 gr30 c <_boot_loader_sp_hi+0xa>
  280144:	a8 27 81 c2 	load32 gr2 gr30 e <_boot_loader_sp_hi+0xc>
  280148:	a8 20 80 42 	load32 gr2 gr2 2 <_boot_loader_sp_hi>
  28014c:	ec 27 81 62 	store32 gr2 gr30 b <_boot_loader_sp_hi+0x9>
  280150:	a8 27 81 c2 	load32 gr2 gr30 e <_boot_loader_sp_hi+0xc>
  280154:	a8 20 80 62 	load32 gr2 gr2 3 <_boot_loader_sp_hi+0x1>
  280158:	ec 27 81 42 	store32 gr2 gr30 a <_boot_loader_sp_hi+0x8>
  28015c:	94 23 00 01 	movigh gr2 3000 <$line_table_start0+0x2d0f>
  280160:	94 22 40 05 	movigl gr2 2400 <$line_table_start0+0x210f>
  280164:	ec 27 81 22 	store32 gr2 gr30 9 <_boot_loader_sp_hi+0x7>
  280168:	a8 37 81 a2 	load32 gr3 gr30 d <_boot_loader_sp_hi+0xb>
  28016c:	84 30 c2 00 	add gr3 gr3 gr2
  280170:	ec 37 81 02 	store32 gr3 gr30 8 <_boot_loader_sp_hi+0x6>
  280174:	a8 37 81 a2 	load32 gr3 gr30 d <_boot_loader_sp_hi+0xb>
  280178:	a8 47 81 82 	load32 gr4 gr30 c <_boot_loader_sp_hi+0xa>
  28017c:	84 30 c4 00 	add gr3 gr3 gr4
  280180:	84 30 c2 00 	add gr3 gr3 gr2
  280184:	ec 37 80 e2 	store32 gr3 gr30 7 <_boot_loader_sp_hi+0x5>
  280188:	a8 37 81 a2 	load32 gr3 gr30 d <_boot_loader_sp_hi+0xb>
  28018c:	a8 47 81 82 	load32 gr4 gr30 c <_boot_loader_sp_hi+0xa>
  280190:	84 30 c4 00 	add gr3 gr3 gr4
  280194:	a8 47 81 62 	load32 gr4 gr30 b <_boot_loader_sp_hi+0x9>
  280198:	84 30 c4 00 	add gr3 gr3 gr4
  28019c:	84 20 c2 00 	add gr2 gr3 gr2
  2801a0:	ec 27 80 c2 	store32 gr2 gr30 6 <_boot_loader_sp_hi+0x4>
  2801a4:	a8 27 81 82 	load32 gr2 gr30 c <_boot_loader_sp_hi+0xa>
  2801a8:	94 00 80 02 	eqi gr2 0 <_CORE0_DRAM_START>
  2801ac:	80 00 01 e5 	jc 2801ec <qx_bootloader_main+0x1cc>
  2801b0:	80 00 00 00 	nop
  2801b4:	80 00 00 00 	nop
  2801b8:	80 00 00 41 	jmp 2801c4 <qx_bootloader_main+0x1a4>
  2801bc:	80 00 00 00 	nop
  2801c0:	80 00 00 00 	nop
  2801c4:	a8 47 81 02 	load32 gr4 gr30 8 <_boot_loader_sp_hi+0x6>
  2801c8:	14 50 00 01 ©°	movigh gr5 0 <_CORE0_DRAM_START>
  2801cc:	a8 67 81 82 ©¸	load32 gr6 gr30 c <_boot_loader_sp_hi+0xa>
  2801d0:	94 50 00 05 	movigl gr5 0 <_CORE0_DRAM_START>
  2801d4:	80 00 0c 0d 	call 280358 <dma_read>
  2801d8:	80 00 00 00 	nop
  2801dc:	80 00 00 00 	nop
  2801e0:	80 00 00 41 	jmp 2801ec <qx_bootloader_main+0x1cc>
  2801e4:	80 00 00 00 	nop
  2801e8:	80 00 00 00 	nop
  2801ec:	a8 27 81 a2 	load32 gr2 gr30 d <_boot_loader_sp_hi+0xb>
  2801f0:	94 00 80 02 	eqi gr2 0 <_CORE0_DRAM_START>
  2801f4:	80 00 01 e5 	jc 280234 <qx_bootloader_main+0x214>
  2801f8:	80 00 00 00 	nop
  2801fc:	80 00 00 00 	nop
  280200:	80 00 00 41 	jmp 28020c <qx_bootloader_main+0x1ec>
  280204:	80 00 00 00 	nop
  280208:	80 00 00 00 	nop
  28020c:	a8 47 81 22 	load32 gr4 gr30 9 <_boot_loader_sp_hi+0x7>
  280210:	14 50 02 21 ©°	movigh gr5 22 <_boot_loader_sp_hi+0x20>
  280214:	a8 67 81 a2 ©¸	load32 gr6 gr30 d <_boot_loader_sp_hi+0xb>
  280218:	94 50 00 05 	movigl gr5 0 <_CORE0_DRAM_START>
  28021c:	80 00 09 cd 	call 280358 <dma_read>
  280220:	80 00 00 00 	nop
  280224:	80 00 00 00 	nop
  280228:	80 00 00 41 	jmp 280234 <qx_bootloader_main+0x214>
  28022c:	80 00 00 00 	nop
  280230:	80 00 00 00 	nop
  280234:	a8 27 81 42 	load32 gr2 gr30 a <_boot_loader_sp_hi+0x8>
  280238:	94 00 80 02 	eqi gr2 0 <_CORE0_DRAM_START>
  28023c:	80 00 01 e5 	jc 28027c <qx_bootloader_main+0x25c>
  280240:	80 00 00 00 	nop
  280244:	80 00 00 00 	nop
  280248:	80 00 00 41 	jmp 280254 <qx_bootloader_main+0x234>
  28024c:	80 00 00 00 	nop
  280250:	80 00 00 00 	nop
  280254:	a8 47 80 c2 	load32 gr4 gr30 6 <_boot_loader_sp_hi+0x4>
  280258:	14 50 00 21 ©°	movigh gr5 2 <_boot_loader_sp_hi>
  28025c:	a8 67 81 42 ©¸	load32 gr6 gr30 a <_boot_loader_sp_hi+0x8>
  280260:	94 50 00 05 	movigl gr5 0 <_CORE0_DRAM_START>
  280264:	80 00 07 8d 	call 280358 <dma_read>
  280268:	80 00 00 00 	nop
  28026c:	80 00 00 00 	nop
  280270:	80 00 00 41 	jmp 28027c <qx_bootloader_main+0x25c>
  280274:	80 00 00 00 	nop
  280278:	80 00 00 00 	nop
  28027c:	a8 27 81 62 	load32 gr2 gr30 b <_boot_loader_sp_hi+0x9>
  280280:	94 00 80 02 	eqi gr2 0 <_CORE0_DRAM_START>
  280284:	80 00 01 e5 	jc 2802c4 <qx_bootloader_main+0x2a4>
  280288:	80 00 00 00 	nop
  28028c:	80 00 00 00 	nop
  280290:	80 00 00 41 	jmp 28029c <qx_bootloader_main+0x27c>
  280294:	80 00 00 00 	nop
  280298:	80 00 00 00 	nop
  28029c:	a8 47 80 e2 	load32 gr4 gr30 7 <_boot_loader_sp_hi+0x5>
  2802a0:	14 50 02 01 ©°	movigh gr5 20 <_boot_loader_sp_hi+0x1e>
  2802a4:	a8 67 81 62 ©¸	load32 gr6 gr30 b <_boot_loader_sp_hi+0x9>
  2802a8:	94 50 00 05 	movigl gr5 0 <_CORE0_DRAM_START>
  2802ac:	80 00 05 4d 	call 280358 <dma_read>
  2802b0:	80 00 00 00 	nop
  2802b4:	80 00 00 00 	nop
  2802b8:	80 00 00 41 	jmp 2802c4 <qx_bootloader_main+0x2a4>
  2802bc:	80 00 00 00 	nop
  2802c0:	80 00 00 00 	nop
  2802c4:	94 20 10 01 	movigh gr2 100 <_boot_loader_sp_hi+0xfe>
  2802c8:	94 29 00 05 	movigl gr2 ffff9000 <DmaCh1Regs+0xfefeff00>
  2802cc:	94 30 00 01 	movigh gr3 0 <_CORE0_DRAM_START>
  2802d0:	94 30 00 15 	movigl gr3 1 <_CORE0_DRAM_START+0x1>
  2802d4:	ec 30 82 c2 	store32 gr3 gr2 16 <_boot_loader_sp_hi+0x14>
  2802d8:	80 00 00 41 	jmp 2802e4 <qx_bootloader_main+0x2c4>
  2802dc:	80 00 00 00 	nop
  2802e0:	80 00 00 00 	nop
  2802e4:	94 20 10 01 	movigh gr2 100 <_boot_loader_sp_hi+0xfe>
  2802e8:	94 29 00 05 	movigl gr2 ffff9000 <DmaCh1Regs+0xfefeff00>
  2802ec:	a8 20 82 c2 	load32 gr2 gr2 16 <_boot_loader_sp_hi+0x14>
  2802f0:	94 00 80 02 	eqi gr2 0 <_CORE0_DRAM_START>
  2802f4:	80 00 01 05 	jc 280318 <qx_bootloader_main+0x2f8>
  2802f8:	80 00 00 00 	nop
  2802fc:	80 00 00 00 	nop
  280300:	80 00 00 41 	jmp 28030c <qx_bootloader_main+0x2ec>
  280304:	80 00 00 00 	nop
  280308:	80 00 00 00 	nop
  28030c:	83 ff fe a1 	jmp 2802e4 <qx_bootloader_main+0x2c4>
  280310:	80 00 00 00 	nop
  280314:	80 00 00 00 	nop
  280318:	94 20 10 01 	movigh gr2 100 <_boot_loader_sp_hi+0xfe>
  28031c:	94 21 00 05 	movigl gr2 1000 <$line_table_start0+0xd0f>
  280320:	a8 30 80 02 	load32 gr3 gr2 0 <_CORE0_DRAM_START>
  280324:	94 30 04 07 	bclr gr3 2 <_boot_loader_sp_hi>
  280328:	14 40 02 21 ©°	movigh gr4 22 <_boot_loader_sp_hi+0x20>
  28032c:	ec 30 80 02 ©¸	store32 gr3 gr2 0 <_CORE0_DRAM_START>
  280330:	94 40 40 05 	movigl gr4 400 <$line_table_start0+0x10f>
  280334:	83 ff e6 ed 	call 280014 <_dsp_boot_jmp_to_core0>
  280338:	80 00 00 00 	nop
  28033c:	80 00 00 00 	nop
  280340:	80 00 00 41 	jmp 28034c <qx_bootloader_main+0x32c>
  280344:	80 00 00 00 	nop
  280348:	80 00 00 00 	nop
  28034c:	83 ff ff e1 	jmp 28034c <qx_bootloader_main+0x32c>
  280350:	80 00 00 00 	nop
  280354:	80 00 00 00 	nop

00280358 <dma_read>:
  280358:	99 e7 bf 00 	addi gr30 gr30 ffffffe0 <DmaCh1Regs+0xfeff6ee0>
  28035c:	ec 47 80 e2 	store32 gr4 gr30 7 <_boot_loader_sp_hi+0x5>
  280360:	ec 57 80 c2 	store32 gr5 gr30 6 <_boot_loader_sp_hi+0x4>
  280364:	ec 67 80 a2 	store32 gr6 gr30 5 <_boot_loader_sp_hi+0x3>
  280368:	80 00 00 00 	nop
  28036c:	a8 27 80 e2 	load32 gr2 gr30 7 <_boot_loader_sp_hi+0x5>
  280370:	ec 27 80 82 	store32 gr2 gr30 4 <_boot_loader_sp_hi+0x2>
  280374:	a8 27 80 c2 	load32 gr2 gr30 6 <_boot_loader_sp_hi+0x4>
  280378:	ec 27 80 62 	store32 gr2 gr30 3 <_boot_loader_sp_hi+0x1>
  28037c:	80 00 00 41 	jmp 280388 <dma_read+0x30>
  280380:	80 00 00 00 	nop
  280384:	80 00 00 00 	nop
  280388:	14 30 10 01 ©°	movigh gr3 100 <_boot_loader_sp_hi+0xfe>
  28038c:	a8 27 80 82 ©¸	load32 gr2 gr30 4 <_boot_loader_sp_hi+0x2>
  280390:	94 39 10 05 	movigl gr3 ffff9100 <DmaCh1Regs+0xfeff0000>
  280394:	ec 20 c0 02 	store32 gr2 gr3 0 <_CORE0_DRAM_START>
  280398:	a8 27 80 62 	load32 gr2 gr30 3 <_boot_loader_sp_hi+0x1>
  28039c:	ec 20 c0 42 	store32 gr2 gr3 2 <_boot_loader_sp_hi>
  2803a0:	94 20 10 01 	movigh gr2 100 <_boot_loader_sp_hi+0xfe>
  2803a4:	94 29 00 05 	movigl gr2 ffff9000 <DmaCh1Regs+0xfefeff00>
  2803a8:	94 30 00 01 	movigh gr3 0 <_CORE0_DRAM_START>
  2803ac:	94 30 10 15 	movigl gr3 101 <_boot_loader_sp_hi+0xff>
  2803b0:	ec 30 80 c2 	store32 gr3 gr2 6 <_boot_loader_sp_hi+0x4>
  2803b4:	80 00 00 41 	jmp 2803c0 <dma_read+0x68>
  2803b8:	80 00 00 00 	nop
  2803bc:	80 00 00 00 	nop
  2803c0:	94 20 10 01 	movigh gr2 100 <_boot_loader_sp_hi+0xfe>
  2803c4:	94 29 10 05 	movigl gr2 ffff9100 <DmaCh1Regs+0xfeff0000>
  2803c8:	14 30 00 01 ©°	movigh gr3 0 <_CORE0_DRAM_START>
  2803cc:	a8 20 84 42 ©¸	load32 gr2 gr2 22 <_boot_loader_sp_hi+0x20>
  2803d0:	94 30 00 25 	movigl gr3 2 <_boot_loader_sp_hi>
  2803d4:	84 20 83 04 	and gr2 gr2 gr3
  2803d8:	94 00 80 06 	neqi gr2 0 <_CORE0_DRAM_START>
  2803dc:	80 00 01 05 	jc 280400 <dma_read+0xa8>
  2803e0:	80 00 00 00 	nop
  2803e4:	80 00 00 00 	nop
  2803e8:	80 00 00 41 	jmp 2803f4 <dma_read+0x9c>
  2803ec:	80 00 00 00 	nop
  2803f0:	80 00 00 00 	nop
  2803f4:	83 ff fe 41 	jmp 2803c0 <dma_read+0x68>
  2803f8:	80 00 00 00 	nop
  2803fc:	80 00 00 00 	nop
  280400:	94 20 10 01 	movigh gr2 100 <_boot_loader_sp_hi+0xfe>
  280404:	94 29 10 05 	movigl gr2 ffff9100 <DmaCh1Regs+0xfeff0000>
  280408:	94 30 00 01 	movigh gr3 0 <_CORE0_DRAM_START>
  28040c:	94 30 00 25 	movigl gr3 2 <_boot_loader_sp_hi>
  280410:	ec 30 84 c2 	store32 gr3 gr2 26 <_boot_loader_sp_hi+0x24>
  280414:	a8 27 80 82 	load32 gr2 gr30 4 <_boot_loader_sp_hi+0x2>
  280418:	98 20 88 00 	addi gr2 gr2 100 <_boot_loader_sp_hi+0xfe>
  28041c:	ec 27 80 82 	store32 gr2 gr30 4 <_boot_loader_sp_hi+0x2>
  280420:	a8 27 80 62 	load32 gr2 gr30 3 <_boot_loader_sp_hi+0x1>
  280424:	98 20 88 00 	addi gr2 gr2 100 <_boot_loader_sp_hi+0xfe>
  280428:	ec 27 80 62 	store32 gr2 gr30 3 <_boot_loader_sp_hi+0x1>
  28042c:	a8 27 80 a2 	load32 gr2 gr30 5 <_boot_loader_sp_hi+0x3>
  280430:	98 20 b8 00 	addi gr2 gr2 ffffff00 <DmaCh1Regs+0xfeff6e00>
  280434:	ec 27 80 a2 	store32 gr2 gr30 5 <_boot_loader_sp_hi+0x3>
  280438:	80 00 00 41 	jmp 280444 <dma_read+0xec>
  28043c:	80 00 00 00 	nop
  280440:	80 00 00 00 	nop
  280444:	a8 27 80 a2 	load32 gr2 gr30 5 <_boot_loader_sp_hi+0x3>
  280448:	94 00 80 0a 	gti gr2 0 <_CORE0_DRAM_START>
  28044c:	83 ff f9 c5 	jc 280388 <dma_read+0x30>
  280450:	80 00 00 00 	nop
  280454:	80 00 00 00 	nop
  280458:	80 00 00 41 	jmp 280464 <dma_read+0x10c>
  28045c:	80 00 00 00 	nop
  280460:	80 00 00 00 	nop
  280464:	99 e7 81 00 	addi gr30 gr30 20 <_boot_loader_sp_hi+0x1e>
  280468:	80 00 00 04 	ret
  28046c:	80 00 00 00 	nop
  280470:	80 00 00 00 	nop
  280474:	80 00 00 00 	nop
  280478:	80 00 00 00 	nop
  28047c:	80 00 00 00 	nop
